target datalayout = "e-m:e-p270:32:32-p271:32:32-p272:64:64-i64:64-i128:128-f80:128-n8:16:32:64-S128"
target triple = "x86_64-pc-linux-gnu"

%class.PreservedMarks = type { %class.Stack }
%class.Stack = type { ptr, %class.StackBase, ptr, ptr }
%class.StackBase = type { i64, i64, i64, i64, i64, i64 }
%class.PreservedMarksSet = type { i8, i32, ptr }
%class.Padded = type { %class.PreservedMarks, [256 x i8] }

@_ZTV5StackI13PreservedMarkL8MEMFLAGS5EE = linkonce_odr hidden unnamed_addr constant { [4 x ptr] } { [4 x ptr] [ptr null, ptr null, ptr @_ZN5StackI13PreservedMarkL8MEMFLAGS5EE5allocEm, ptr @_ZN5StackI13PreservedMarkL8MEMFLAGS5EE4freeEPS0_m] }, comdat, align 8

; Function Attrs: mustprogress nounwind uwtable
define linkonce_odr hidden noundef i64 @_ZN9StackBaseIL8MEMFLAGS5EE15adjust_max_sizeEmm(i64 noundef %0, i64 noundef %1) #1 comdat align 2 {
  %3 = alloca i64, align 8
  %4 = alloca i64, align 8
  %5 = alloca i64, align 8
  store i64 %0, ptr %3, align 8
  store i64 %1, ptr %4, align 8
  %6 = load i64, ptr %4, align 8
  %7 = sub i64 %6, 1
  %8 = sub i64 -1, %7
  store i64 %8, ptr %5, align 8
  %9 = load i64, ptr %3, align 8
  %10 = icmp eq i64 %9, 0
  br i1 %10, label %15, label %11

11:                                               ; preds = %2
  %12 = load i64, ptr %3, align 8
  %13 = load i64, ptr %5, align 8
  %14 = icmp ugt i64 %12, %13
  br i1 %14, label %15, label %17

15:                                               ; preds = %11, %2
  %16 = load i64, ptr %5, align 8
  store i64 %16, ptr %3, align 8
  br label %17

17:                                               ; preds = %15, %11
  %18 = load i64, ptr %3, align 8
  %19 = load i64, ptr %4, align 8
  %20 = add i64 %18, %19
  %21 = sub i64 %20, 1
  %22 = load i64, ptr %4, align 8
  %23 = udiv i64 %21, %22
  %24 = load i64, ptr %4, align 8
  %25 = mul i64 %23, %24
  ret i64 %25
}

; Function Attrs: mustprogress nounwind uwtable
define linkonce_odr hidden void @_ZN5StackI13PreservedMarkL8MEMFLAGS5EE5resetEb(ptr noundef nonnull align 8 dereferenceable(72) %0, i1 noundef zeroext %1) #1 comdat align 2 {
  %3 = alloca ptr, align 8
  %4 = alloca i8, align 1
  store ptr %0, ptr %3, align 8
  %5 = zext i1 %1 to i8
  store i8 %5, ptr %4, align 1
  %6 = load ptr, ptr %3, align 8
  %7 = getelementptr inbounds i8, ptr %6, i64 8
  %8 = getelementptr inbounds %class.StackBase, ptr %7, i32 0, i32 0
  %9 = load i64, ptr %8, align 8
  %10 = getelementptr inbounds i8, ptr %6, i64 8
  %11 = getelementptr inbounds %class.StackBase, ptr %10, i32 0, i32 3
  store i64 %9, ptr %11, align 8
  %12 = getelementptr inbounds i8, ptr %6, i64 8
  %13 = getelementptr inbounds %class.StackBase, ptr %12, i32 0, i32 4
  store i64 0, ptr %13, align 8
  %14 = getelementptr inbounds %class.Stack, ptr %6, i32 0, i32 2
  store ptr null, ptr %14, align 8
  %15 = load i8, ptr %4, align 1
  %16 = trunc i8 %15 to i1
  br i1 %16, label %17, label %21

17:                                               ; preds = %2
  %18 = getelementptr inbounds i8, ptr %6, i64 8
  %19 = getelementptr inbounds %class.StackBase, ptr %18, i32 0, i32 5
  store i64 0, ptr %19, align 8
  %20 = getelementptr inbounds %class.Stack, ptr %6, i32 0, i32 3
  store ptr null, ptr %20, align 8
  br label %21

21:                                               ; preds = %17, %2
  ret void
}

; Function Attrs: mustprogress nounwind uwtable
define linkonce_odr hidden void @_ZN9StackBaseIL8MEMFLAGS5EEC2Emmm(ptr noundef nonnull align 8 dereferenceable(48) %0, i64 noundef %1, i64 noundef %2, i64 noundef %3) unnamed_addr #1 comdat align 2 {
  %5 = alloca ptr, align 8
  %6 = alloca i64, align 8
  %7 = alloca i64, align 8
  %8 = alloca i64, align 8
  store ptr %0, ptr %5, align 8
  store i64 %1, ptr %6, align 8
  store i64 %2, ptr %7, align 8
  store i64 %3, ptr %8, align 8
  %9 = load ptr, ptr %5, align 8
  %10 = getelementptr inbounds %class.StackBase, ptr %9, i32 0, i32 0
  %11 = load i64, ptr %6, align 8
  store i64 %11, ptr %10, align 8
  %12 = getelementptr inbounds %class.StackBase, ptr %9, i32 0, i32 1
  %13 = load i64, ptr %8, align 8
  %14 = load i64, ptr %6, align 8
  %15 = call noundef i64 @_ZN9StackBaseIL8MEMFLAGS5EE15adjust_max_sizeEmm(i64 noundef %13, i64 noundef %14)
  store i64 %15, ptr %12, align 8
  %16 = getelementptr inbounds %class.StackBase, ptr %9, i32 0, i32 2
  %17 = load i64, ptr %7, align 8
  store i64 %17, ptr %16, align 8
  ret void
}

; Function Attrs: mustprogress nounwind uwtable
define linkonce_odr hidden noundef i64 @_ZN5StackI13PreservedMarkL8MEMFLAGS5EE19adjust_segment_sizeEm(i64 noundef %0) #1 comdat align 2 {
  %2 = alloca i64, align 8
  %3 = alloca i64, align 8
  %4 = alloca i64, align 8
  store i64 %0, ptr %2, align 8
  store i64 16, ptr %3, align 8
  store i64 8, ptr %4, align 8
  %5 = load i64, ptr %2, align 8
  ret i64 %5
}

; Function Attrs: mustprogress nounwind uwtable
define linkonce_odr hidden void @_ZN5StackI13PreservedMarkL8MEMFLAGS5EEC2Emmm(ptr noundef nonnull align 8 dereferenceable(72) %0, i64 noundef %1, i64 noundef %2, i64 noundef %3) unnamed_addr #1 comdat align 2 {
  %5 = alloca ptr, align 8
  %6 = alloca i64, align 8
  %7 = alloca i64, align 8
  %8 = alloca i64, align 8
  store ptr %0, ptr %5, align 8
  store i64 %1, ptr %6, align 8
  store i64 %2, ptr %7, align 8
  store i64 %3, ptr %8, align 8
  %9 = load ptr, ptr %5, align 8
  %10 = getelementptr inbounds i8, ptr %9, i64 8
  %11 = load i64, ptr %6, align 8
  %12 = call noundef i64 @_ZN5StackI13PreservedMarkL8MEMFLAGS5EE19adjust_segment_sizeEm(i64 noundef %11)
  %13 = load i64, ptr %7, align 8
  %14 = load i64, ptr %8, align 8
  call void @_ZN9StackBaseIL8MEMFLAGS5EEC2Emmm(ptr noundef nonnull align 8 dereferenceable(48) %10, i64 noundef %12, i64 noundef %13, i64 noundef %14)
  store ptr getelementptr inbounds inrange(-16, 16) ({ [4 x ptr] }, ptr @_ZTV5StackI13PreservedMarkL8MEMFLAGS5EE, i32 0, i32 0, i32 2), ptr %9, align 8
  call void @_ZN5StackI13PreservedMarkL8MEMFLAGS5EE5resetEb(ptr noundef nonnull align 8 dereferenceable(72) %9, i1 noundef zeroext true)
  ret void
}

; Function Attrs: mustprogress nounwind uwtable
define linkonce_odr hidden noundef i64 @_ZN5StackI13PreservedMarkL8MEMFLAGS5EE20default_segment_sizeEv() #1 comdat align 2 {
  ret i64 255
}

; Function Attrs: mustprogress nounwind uwtable
define linkonce_odr hidden void @_ZN17PreservedMarksSet12assert_emptyEv(ptr noundef nonnull align 8 dereferenceable(16) %0) #1 comdat align 2 {
  %2 = alloca ptr, align 8
  store ptr %0, ptr %2, align 8
  ret void
}

; Function Attrs: mustprogress nounwind uwtable
define linkonce_odr hidden void @_ZN14PreservedMarksC2Ev(ptr noundef nonnull align 8 dereferenceable(72) %0) unnamed_addr #1 comdat align 2 {
  %2 = alloca ptr, align 8
  store ptr %0, ptr %2, align 8
  %3 = load ptr, ptr %2, align 8
  %4 = getelementptr inbounds %class.PreservedMarks, ptr %3, i32 0, i32 0
  %5 = call noundef i64 @_ZN5StackI13PreservedMarkL8MEMFLAGS5EE20default_segment_sizeEv()
  call void @_ZN5StackI13PreservedMarkL8MEMFLAGS5EEC2Emmm(ptr noundef nonnull align 8 dereferenceable(72) %4, i64 noundef %5, i64 noundef 0, i64 noundef 0)
  ret void
}

; Function Attrs: mustprogress nounwind uwtable
define hidden void @_ZN17PreservedMarksSet4initEj(ptr noundef nonnull align 8 dereferenceable(16) %0, i32 noundef %1) #1 align 2 {
  %3 = alloca ptr, align 8
  %4 = alloca i32, align 4
  %5 = alloca i32, align 4
  store ptr %0, ptr %3, align 8
  store i32 %1, ptr %4, align 4
  %6 = load ptr, ptr %3, align 8
  %7 = getelementptr inbounds %class.PreservedMarksSet, ptr %6, i32 0, i32 0
  %8 = load i8, ptr %7, align 8
  %9 = trunc i8 %8 to i1
  br i1 %9, label %10, label %16

10:                                               ; preds = %2
  %11 = load i32, ptr %4, align 4
  %12 = zext i32 %11 to i64
  %13 = mul i64 %12, 328
  %14 = call noundef ptr @_Z12AllocateHeapm8MEMFLAGSN17AllocFailStrategy13AllocFailEnumE(i64 noundef %13, i8 noundef zeroext 5, i32 noundef 0)
  %15 = getelementptr inbounds %class.PreservedMarksSet, ptr %6, i32 0, i32 2
  store ptr %14, ptr %15, align 8
  br label %22

16:                                               ; preds = %2
  %17 = load i32, ptr %4, align 4
  %18 = zext i32 %17 to i64
  %19 = mul i64 %18, 328
  %20 = call noundef ptr @_Z23resource_allocate_bytesmN17AllocFailStrategy13AllocFailEnumE(i64 noundef %19, i32 noundef 0)
  %21 = getelementptr inbounds %class.PreservedMarksSet, ptr %6, i32 0, i32 2
  store ptr %20, ptr %21, align 8
  br label %22

22:                                               ; preds = %16, %10
  store i32 0, ptr %5, align 4
  br label %23

23:                                               ; preds = %33, %22
  %24 = load i32, ptr %5, align 4
  %25 = load i32, ptr %4, align 4
  %26 = icmp ult i32 %24, %25
  br i1 %26, label %27, label %36

27:                                               ; preds = %23
  %28 = getelementptr inbounds %class.PreservedMarksSet, ptr %6, i32 0, i32 2
  %29 = load ptr, ptr %28, align 8
  %30 = load i32, ptr %5, align 4
  %31 = zext i32 %30 to i64
  %32 = getelementptr inbounds %class.Padded, ptr %29, i64 %31
  call void @_ZN14PreservedMarksC2Ev(ptr noundef nonnull align 8 dereferenceable(72) %32)
  br label %33

33:                                               ; preds = %27
  %34 = load i32, ptr %5, align 4
  %35 = add i32 %34, 1
  store i32 %35, ptr %5, align 4
  br label %23, !llvm.loop !9

36:                                               ; preds = %23
  %37 = load i32, ptr %4, align 4
  %38 = getelementptr inbounds %class.PreservedMarksSet, ptr %6, i32 0, i32 1
  store i32 %37, ptr %38, align 4
  call void @_ZN17PreservedMarksSet12assert_emptyEv(ptr noundef nonnull align 8 dereferenceable(16) %6)
  ret void
}