; Function Attrs: mustprogress nounwind uwtable
define hidden void @_ZN17PreservedMarksSet4initEj(ptr nocapture noundef nonnull align 8 dereferenceable(16) %0, i32 noundef %1) local_unnamed_addr #0 align 2 {
  %3 = load i8, ptr %0, align 8
  %4 = trunc i8 %3 to i1
  %5 = zext i32 %1 to i64
  %6 = mul nuw nsw i64 %5, 328
  br i1 %4, label %7, label %9

7:                                                ; preds = %2
  %8 = tail call noundef ptr @_Z12AllocateHeapm8MEMFLAGSN17AllocFailStrategy13AllocFailEnumE(i64 noundef %6, i8 noundef zeroext 5, i32 noundef 0) #7
  br label %11

9:                                                ; preds = %2
  %10 = tail call noundef ptr @_Z23resource_allocate_bytesmN17AllocFailStrategy13AllocFailEnumE(i64 noundef %6, i32 noundef 0) #7
  br label %11

11:                                               ; preds = %9, %7
  %.sink = phi ptr [ %8, %7 ], [ %10, %9 ]
  %12 = getelementptr inbounds i8, ptr %0, i64 8
  store ptr %.sink, ptr %12, align 8
  %.not = icmp eq i32 %1, 0
  br i1 %.not, label %._crit_edge, label %.lr.ph

.lr.ph:                                           ; preds = %11
  %wide.trip.count = zext i32 %1 to i64
  br label %13

13:                                               ; preds = %.lr.ph, %13
  %indvars.iv = phi i64 [ 0, %.lr.ph ], [ %indvars.iv.next, %13 ]
  %14 = load ptr, ptr %12, align 8
  %15 = getelementptr inbounds %class.Padded, ptr %14, i64 %indvars.iv
  %16 = getelementptr inbounds i8, ptr %15, i64 8
  store i64 255, ptr %16, align 8
  %17 = getelementptr inbounds i8, ptr %15, i64 16
  store i64 -1, ptr %17, align 8
  %18 = getelementptr inbounds i8, ptr %15, i64 24
  store i64 0, ptr %18, align 8
  store ptr getelementptr inbounds inrange(-16, 16) (i8, ptr @_ZTV5StackI13PreservedMarkL8MEMFLAGS5EE, i64 16), ptr %15, align 8
  %19 = getelementptr inbounds i8, ptr %15, i64 32
  store i64 255, ptr %19, align 8
  %20 = getelementptr inbounds i8, ptr %15, i64 40
  tail call void @llvm.memset.p0.i64(ptr noundef nonnull align 8 dereferenceable(32) %20, i8 0, i64 32, i1 false)
  %indvars.iv.next = add nuw nsw i64 %indvars.iv, 1
  %exitcond.not = icmp eq i64 %indvars.iv.next, %wide.trip.count
  br i1 %exitcond.not, label %._crit_edge, label %13, !llvm.loop !10

._crit_edge:                                      ; preds = %13, %11
  %21 = getelementptr inbounds i8, ptr %0, i64 4
  store i32 %1, ptr %21, align 4
  ret void
}